target datalayout = "e-m:e-p270:32:32-p271:32:32-p272:64:64-i64:64-i128:128-f80:128-n8:16:32:64-S128"
target triple = "x86_64-pc-linux-gnu"

%"class.Imf_3_4::Array2D.13" = type { i64, i64, ptr }
%"class.Imf_3_4::Array2D.14" = type { i64, i64, ptr }
%"class.Imf_3_4::Array2D.6" = type { i64, i64, ptr }
%"class.Imf_3_4::Array2D.7" = type { i64, i64, ptr }
%"class.Imath_3_2::half" = type { i16 }

@testDataZ = dso_local global %"class.Imf_3_4::Array2D.13" zeroinitializer, align 8
@testDataA = dso_local global %"class.Imf_3_4::Array2D.14" zeroinitializer, align 8

; Function Attrs: inlinehint mustprogress nounwind uwtable
define linkonce_odr dso_local noundef ptr @_ZN7Imf_3_47Array2DIPN9Imath_3_24halfEEixEl(ptr noundef nonnull align 8 dereferenceable(24) %0, i64 noundef %1) #7 comdat align 2 {
  %3 = alloca ptr, align 8
  %4 = alloca i64, align 8
  store ptr %0, ptr %3, align 8, !tbaa !17
  store i64 %1, ptr %4, align 8, !tbaa !40
  %5 = load ptr, ptr %3, align 8
  %6 = getelementptr inbounds nuw %"class.Imf_3_4::Array2D.7", ptr %5, i32 0, i32 2
  %7 = load ptr, ptr %6, align 8, !tbaa !57
  %8 = load i64, ptr %4, align 8, !tbaa !40
  %9 = getelementptr inbounds nuw %"class.Imf_3_4::Array2D.7", ptr %5, i32 0, i32 1
  %10 = load i64, ptr %9, align 8, !tbaa !60
  %11 = mul nsw i64 %8, %10
  %12 = getelementptr inbounds ptr, ptr %7, i64 %11
  ret ptr %12
}

; Function Attrs: inlinehint mustprogress nounwind uwtable
define linkonce_odr dso_local noundef ptr @_ZN7Imf_3_47Array2DIN9Imath_3_24halfEEixEl(ptr noundef nonnull align 8 dereferenceable(24) %0, i64 noundef %1) #7 comdat align 2 {
  %3 = alloca ptr, align 8
  %4 = alloca i64, align 8
  store ptr %0, ptr %3, align 8, !tbaa !71
  store i64 %1, ptr %4, align 8, !tbaa !40
  %5 = load ptr, ptr %3, align 8
  %6 = getelementptr inbounds nuw %"class.Imf_3_4::Array2D.14", ptr %5, i32 0, i32 2
  %7 = load ptr, ptr %6, align 8, !tbaa !76
  %8 = load i64, ptr %4, align 8, !tbaa !40
  %9 = getelementptr inbounds nuw %"class.Imf_3_4::Array2D.14", ptr %5, i32 0, i32 1
  %10 = load i64, ptr %9, align 8, !tbaa !75
  %11 = mul nsw i64 %8, %10
  %12 = getelementptr inbounds %"class.Imath_3_2::half", ptr %7, i64 %11
  ret ptr %12
}

; Function Attrs: inlinehint mustprogress nounwind uwtable
define linkonce_odr dso_local noundef ptr @_ZN7Imf_3_47Array2DIPfEixEl(ptr noundef nonnull align 8 dereferenceable(24) %0, i64 noundef %1) #7 comdat align 2 {
  %3 = alloca ptr, align 8
  %4 = alloca i64, align 8
  store ptr %0, ptr %3, align 8, !tbaa !15
  store i64 %1, ptr %4, align 8, !tbaa !40
  %5 = load ptr, ptr %3, align 8
  %6 = getelementptr inbounds nuw %"class.Imf_3_4::Array2D.6", ptr %5, i32 0, i32 2
  %7 = load ptr, ptr %6, align 8, !tbaa !51
  %8 = load i64, ptr %4, align 8, !tbaa !40
  %9 = getelementptr inbounds nuw %"class.Imf_3_4::Array2D.6", ptr %5, i32 0, i32 1
  %10 = load i64, ptr %9, align 8, !tbaa !54
  %11 = mul nsw i64 %8, %10
  %12 = getelementptr inbounds ptr, ptr %7, i64 %11
  ret ptr %12
}

; Function Attrs: inlinehint mustprogress nounwind uwtable
define linkonce_odr dso_local noundef ptr @_ZN7Imf_3_47Array2DIfEixEl(ptr noundef nonnull align 8 dereferenceable(24) %0, i64 noundef %1) #7 comdat align 2 {
  %3 = alloca ptr, align 8
  %4 = alloca i64, align 8
  store ptr %0, ptr %3, align 8, !tbaa !65
  store i64 %1, ptr %4, align 8, !tbaa !40
  %5 = load ptr, ptr %3, align 8
  %6 = getelementptr inbounds nuw %"class.Imf_3_4::Array2D.13", ptr %5, i32 0, i32 2
  %7 = load ptr, ptr %6, align 8, !tbaa !70
  %8 = load i64, ptr %4, align 8, !tbaa !40
  %9 = getelementptr inbounds nuw %"class.Imf_3_4::Array2D.13", ptr %5, i32 0, i32 1
  %10 = load i64, ptr %9, align 8, !tbaa !69
  %11 = mul nsw i64 %8, %10
  %12 = getelementptr inbounds float, ptr %7, i64 %11
  ret ptr %12
}

; Function Attrs: mustprogress uwtable
define dso_local void @_Z18getPixelSampleDataiiRN7Imf_3_47Array2DIPfEERNS0_IPN9Imath_3_24halfEEE(i32 noundef %0, i32 noundef %1, ptr noundef nonnull align 8 dereferenceable(24) %2, ptr noundef nonnull align 8 dereferenceable(24) %3) #6 {
  %5 = alloca i32, align 4
  %6 = alloca i32, align 4
  %7 = alloca ptr, align 8
  %8 = alloca ptr, align 8
  store i32 %0, ptr %5, align 4, !tbaa !28
  store i32 %1, ptr %6, align 4, !tbaa !28
  store ptr %2, ptr %7, align 8, !tbaa !15
  store ptr %3, ptr %8, align 8, !tbaa !17
  %9 = load i32, ptr %5, align 4, !tbaa !28
  %10 = sext i32 %9 to i64
  %11 = call noundef ptr @_ZN7Imf_3_47Array2DIfEixEl(ptr noundef nonnull align 8 dereferenceable(24) @testDataZ, i64 noundef %10)
  %12 = load i32, ptr %6, align 4, !tbaa !28
  %13 = sext i32 %12 to i64
  %14 = getelementptr inbounds float, ptr %11, i64 %13
  %15 = load float, ptr %14, align 4, !tbaa !77
  %16 = load ptr, ptr %7, align 8, !tbaa !15
  %17 = load i32, ptr %5, align 4, !tbaa !28
  %18 = sext i32 %17 to i64
  %19 = call noundef ptr @_ZN7Imf_3_47Array2DIPfEixEl(ptr noundef nonnull align 8 dereferenceable(24) %16, i64 noundef %18)
  %20 = load i32, ptr %6, align 4, !tbaa !28
  %21 = sext i32 %20 to i64
  %22 = getelementptr inbounds ptr, ptr %19, i64 %21
  %23 = load ptr, ptr %22, align 8, !tbaa !31
  %24 = getelementptr inbounds float, ptr %23, i64 0
  store float %15, ptr %24, align 4, !tbaa !77
  %25 = load i32, ptr %5, align 4, !tbaa !28
  %26 = sext i32 %25 to i64
  %27 = call noundef ptr @_ZN7Imf_3_47Array2DIN9Imath_3_24halfEEixEl(ptr noundef nonnull align 8 dereferenceable(24) @testDataA, i64 noundef %26)
  %28 = load i32, ptr %6, align 4, !tbaa !28
  %29 = sext i32 %28 to i64
  %30 = getelementptr inbounds %"class.Imath_3_2::half", ptr %27, i64 %29
  %31 = load ptr, ptr %8, align 8, !tbaa !17
  %32 = load i32, ptr %5, align 4, !tbaa !28
  %33 = sext i32 %32 to i64
  %34 = call noundef ptr @_ZN7Imf_3_47Array2DIPN9Imath_3_24halfEEixEl(ptr noundef nonnull align 8 dereferenceable(24) %31, i64 noundef %33)
  %35 = load i32, ptr %6, align 4, !tbaa !28
  %36 = sext i32 %35 to i64
  %37 = getelementptr inbounds ptr, ptr %34, i64 %36
  %38 = load ptr, ptr %37, align 8, !tbaa !33
  %39 = getelementptr inbounds %"class.Imath_3_2::half", ptr %38, i64 0
  call void @llvm.memcpy.p0.p0.i64(ptr align 2 %39, ptr align 2 %30, i64 2, i1 false), !tbaa.struct !79
  ret void
}