; Function Attrs: mustprogress nofree norecurse nosync nounwind willreturn memory(readwrite, inaccessiblemem: none) uwtable
define dso_local void @_Z18getPixelSampleDataiiRN7Imf_3_47Array2DIPfEERNS0_IPN9Imath_3_24halfEEE(i32 noundef %0, i32 noundef %1, ptr noundef nonnull readonly align 8 captures(none) dereferenceable(24) %2, ptr noundef nonnull readonly align 8 captures(none) dereferenceable(24) %3) local_unnamed_addr #10 {
  %5 = sext i32 %0 to i64
  %6 = load ptr, ptr getelementptr inbounds nuw (i8, ptr @testDataZ, i64 16), align 8, !tbaa !62
  %7 = load i64, ptr getelementptr inbounds nuw (i8, ptr @testDataZ, i64 8), align 8, !tbaa !66
  %8 = mul nsw i64 %7, %5
  %9 = getelementptr inbounds float, ptr %6, i64 %8
  %10 = sext i32 %1 to i64
  %11 = getelementptr inbounds float, ptr %9, i64 %10
  %12 = load float, ptr %11, align 4, !tbaa !67
  %13 = getelementptr inbounds nuw i8, ptr %2, i64 16
  %14 = load ptr, ptr %13, align 8, !tbaa !22
  %15 = getelementptr inbounds nuw i8, ptr %2, i64 8
  %16 = load i64, ptr %15, align 8, !tbaa !27
  %17 = mul nsw i64 %16, %5
  %18 = getelementptr inbounds ptr, ptr %14, i64 %17
  %19 = getelementptr inbounds ptr, ptr %18, i64 %10
  %20 = load ptr, ptr %19, align 8, !tbaa !45
  store float %12, ptr %20, align 4, !tbaa !67
  %21 = load ptr, ptr getelementptr inbounds nuw (i8, ptr @testDataA, i64 16), align 8, !tbaa !64
  %22 = load i64, ptr getelementptr inbounds nuw (i8, ptr @testDataA, i64 8), align 8, !tbaa !69
  %23 = mul nsw i64 %22, %5
  %24 = getelementptr inbounds %"class.Imath_3_2::half", ptr %21, i64 %23
  %25 = getelementptr inbounds %"class.Imath_3_2::half", ptr %24, i64 %10
  %26 = getelementptr inbounds nuw i8, ptr %3, i64 16
  %27 = load ptr, ptr %26, align 8, !tbaa !28
  %28 = getelementptr inbounds nuw i8, ptr %3, i64 8
  %29 = load i64, ptr %28, align 8, !tbaa !32
  %30 = mul nsw i64 %29, %5
  %31 = getelementptr inbounds ptr, ptr %27, i64 %30
  %32 = getelementptr inbounds ptr, ptr %31, i64 %10
  %33 = load ptr, ptr %32, align 8, !tbaa !47
  %34 = load i16, ptr %25, align 2, !tbaa !70
  store i16 %34, ptr %33, align 2, !tbaa !70
  ret void
}